(dp0
S'snaky'
p1
I18580
sS'knelt'
p2
I429464
sS'sleek'
p3
I2734565
sS'sleet'
p4
I305148
sS'sleep'
p5
I29491537
sS'elegy'
p6
I295636
sS'aider'
p7
I140957
sS'woody'
p8
I4355633
sS'whose'
p9
I43634263
sS'voter'
p10
I4905374
sS'buddy'
p11
I23611087
sS'tweet'
p12
I168757
sS'scold'
p13
I170208
sS'sinew'
p14
I74869
sS'under'
p15
I313296421
sS'regal'
p16
I2236787
sS'sorry'
p17
I35595812
sS'pride'
p18
I14428078
sS'worth'
p19
I48075237
sS'digit'
p20
I6991045
sS'manic'
p21
I1448525
sS'smack'
p22
I1451860
sS'mania'
p23
I3688699
sS'every'
p24
I189325890
sS'caput'
p25
I105633
sS'hitch'
p26
I2730000
sS'prize'
p27
I16204739
sS'humph'
p28
I60767
sS'pinch'
p29
I2082769
sS'venue'
p30
I14204074
sS'poppy'
p31
I1805254
sS'enjoy'
p32
I50141455
sS'force'
p33
I79199815
sS'speck'
p34
I757962
sS'quilt'
p35
I5187075
sS'bacon'
p36
I5385205
sS'pulse'
p37
I18893735
sS'rusty'
p38
I2780895
sS'sooth'
p39
I141125
sS'roomy'
p40
I574188
sS'quill'
p41
I790160
sS'gawky'
p42
I31136
sS'wreck'
p43
I2447935
sS'skiff'
p44
I281833
sS'decry'
p45
I203238
sS'fjord'
p46
I387543
sS'above'
p47
I141894620
sS'bleep'
p48
I397961
sS'zesty'
p49
I210124
sS'niche'
p50
I3999108
sS'avert'
p51
I767435
sS'woozy'
p52
I72439
sS'gayer'
p53
I62075
sS'never'
p54
I149556758
sS'gamut'
p55
I553397
sS'china'
p56
I124472054
sS'nanny'
p57
I3025474
sS'quite'
p58
I58777731
sS'spiel'
p59
I811922
sS'forum'
p60
I254478181
sS'taper'
p61
I1294069
sS'study'
p62
I152978354
sS'envoy'
p63
I1574245
sS'guide'
p64
I213378807
sS'smoke'
p65
I16567733
sS'vinyl'
p66
I17009819
sS'hunch'
p67
I327195
sS'stray'
p68
I1807545
sS'straw'
p69
I3958211
sS'stink'
p70
I872742
sS'strap'
p71
I11414669
sS'elude'
p72
I215496
sS'gaffe'
p73
I132748
sS'moral'
p74
I13643598
sS'stern'
p75
I4643592
sS'welch'
p76
I3031408
sS'total'
p77
I222649459
sS'ebony'
p78
I14831025
sS'meaty'
p79
I395095
sS'spoke'
p80
I11577917
sS'would'
p81
I572644147
sS'ratty'
p82
I148678
sS'gloss'
p83
I3426618
sS'pudgy'
p84
I89451
sS'bayou'
p85
I1397958
sS'music'
p86
I414028837
sS'asset'
p87
I18178753
sS'spike'
p88
I4833410
sS'leaky'
p89
I650957
sS'crony'
p90
I137861
sS'until'
p91
I113090086
sS'relay'
p92
I9275052
sS'relax'
p93
I8856944
sS'naive'
p94
I1848489
sS'bilge'
p95
I412304
sS'phony'
p96
I765758
sS'award'
p97
I59652161
sS'aware'
p98
I25700328
sS'grief'
p99
I4552843
sS'phone'
p100
I256643812
sS'myrrh'
p101
I294893
sS'pecan'
p102
I1118027
sS'adult'
p103
I97583096
sS'tying'
p104
I1898217
sS'qualm'
p105
I34744
sS'midst'
p106
I3381410
sS'pouch'
p107
I4023912
sS'tweed'
p108
I1631867
sS'copse'
p109
I90567
sS'shoot'
p110
I12695618
sS'flora'
p111
I4756211
sS'setup'
p112
I23534848
sS'blade'
p113
I11527988
sS'whack'
p114
I725891
sS'oxide'
p115
I5321340
sS'elbow'
p116
I3484326
sS'endow'
p117
I195844
sS'could'
p118
I302311431
sS'shook'
p119
I2917411
sS'defer'
p120
I1207925
sS'vodka'
p121
I2155662
sS'flunk'
p122
I79790
sS'flung'
p123
I838045
sS'cynic'
p124
I525906
sS'honey'
p125
I9978043
sS'foist'
p126
I55908
sS'rayon'
p127
I934490
sS'pinto'
p128
I1108872
sS'aging'
p129
I12014007
sS'farce'
p130
I727546
sS'agony'
p131
I1543205
sS'toxin'
p132
I1495922
sS'toxic'
p133
I9065369
sS'beach'
p134
I105642682
sS'pizza'
p135
I14763787
sS'badly'
p136
I5290145
sS'poker'
p137
I129054826
sS'fever'
p138
I8582665
sS'scion'
p139
I2245350
sS'rebar'
p140
I281535
sS'after'
p141
I372948094
sS'wrong'
p142
I49156828
sS'chump'
p143
I270215
sS'salsa'
p144
I4234056
sS'parry'
p145
I1371591
sS'plier'
p146
I260940
sS'gusty'
p147
I202515
sS'third'
p148
I95489240
sS'hasty'
p149
I700024
sS'spout'
p150
I905624
sS'minim'
p151
I165667
sS'fungi'
p152
I2000715
sS'tulip'
p153
I2406691
sS'rogue'
p154
I4576302
sS'green'
p155
I108287905
sS'south'
p156
I238581133
sS'enter'
p157
I119394206
sS'aloud'
p158
I3743858
sS'diary'
p159
I14922472
sS'vapor'
p160
I3744912
sS'order'
p161
I336631187
sS'greed'
p162
I1997460
sS'offal'
p163
I194416
sS'salon'
p164
I10079006
sS'fetus'
p165
I1744267
sS'toddy'
p166
I131875
sS'fable'
p167
I1678751
sS'mayor'
p168
I15030847
sS'howdy'
p169
I726642
sS'tramp'
p170
I1087707
sS'valor'
p171
I1193133
sS'carve'
p172
I952422
sS'shear'
p173
I2886210
sS'split'
p174
I19998411
sS'downy'
p175
I288639
sS'madly'
p176
I545418
sS'duvet'
p177
I1567578
sS'slate'
p178
I3813904
sS'roost'
p179
I608008
sS'break'
p180
I51242970
sS'octal'
p181
I557500
sS'shirk'
p182
I194196
sS'bread'
p183
I13575360
sS'gloom'
p184
I878018
sS'rocky'
p185
I10404321
sS'thyme'
p186
I1007823
sS'debut'
p187
I7220643
sS'chuck'
p188
I9574825
sS'choir'
p189
I5156247
sS'roast'
p190
I3205415
sS'debug'
p191
I9581095
sS'dumpy'
p192
I88067
sS'lofty'
p193
I1018661
sS'lusty'
p194
I702157
sS'adobe'
p195
I27538755
sS'tatty'
p196
I130077
sS'prawn'
p197
I510828
sS'croup'
p198
I149483
sS'flock'
p199
I2585098
sS'borne'
p200
I3379421
sS'golem'
p201
I444797
sS'optic'
p202
I4558869
sS'pesky'
p203
I619402
sS'smirk'
p204
I403780
sS'motel'
p205
I9170238
sS'waive'
p206
I1789027
sS'forty'
p207
I7415064
sS'mason'
p208
I9461838
sS'forte'
p209
I1795408
sS'adapt'
p210
I4675567
sS'debit'
p211
I4633794
sS'eying'
p212
I31044
sS'newly'
p213
I21102330
sS'forth'
p214
I20149609
sS'fella'
p215
I639391
sS'sheer'
p216
I6684477
sS'refit'
p217
I197564
sS'putty'
p218
I1065017
sS'abate'
p219
I470646
sS'aisle'
p220
I1917319
sS'louse'
p221
I178544
sS'shush'
p222
I60031
sS'pence'
p223
I1009358
sS'lousy'
p224
I1095083
sS'renew'
p225
I6561081
sS'leapt'
p226
I411241
sS'fleck'
p227
I454043
sS'breed'
p228
I7716901
sS'dunce'
p229
I112570
sS'grade'
p230
I54275130
sS'unlit'
p231
I94251
sS'awoke'
p232
I688520
sS'sober'
p233
I1672710
sS'comic'
p234
I16695850
sS'ditch'
p235
I2373753
sS'sooty'
p236
I220245
sS'dwelt'
p237
I512083
sS'girly'
p238
I778626
sS'tango'
p239
I2727306
sS'tangy'
p240
I333638
sS'dwell'
p241
I2014411
sS'urban'
p242
I38087999
sS'pubic'
p243
I923627
sS'serve'
p244
I36697856
sS'scant'
p245
I543285
sS'incur'
p246
I1984112
sS'stoic'
p247
I272080
sS'palsy'
p248
I1409502
sS'tithe'
p249
I359291
sS'crawl'
p250
I2859784
sS'mercy'
p251
I6831149
sS'surer'
p252
I73497
sS'peril'
p253
I1258951
sS'guild'
p254
I7923630
sS'guile'
p255
I1026260
sS'crave'
p256
I1199466
sS'prong'
p257
I1059042
sS'silly'
p258
I6833654
sS'giver'
p259
I698546
sS'mirth'
p260
I381439
sS'beard'
p261
I3166516
sS'minus'
p262
I7025364
sS'gayly'
p263
I29264
sS'shyly'
p264
I213165
sS'corny'
p265
I378659
sS'churn'
p266
I694218
sS'leafy'
p267
I704018
sS'spade'
p268
I1567565
sS'dozen'
p269
I9776227
sS'horde'
p270
I3026646
sS'realm'
p271
I6122762
sS'alibi'
p272
I448710
sS'laden'
p273
I5964620
sS'gripe'
p274
I545043
sS'chest'
p275
I13516414
sS'chess'
p276
I8293823
sS'hatch'
p277
I3896261
sS'cleft'
p278
I787981
sS'rider'
p279
I8987802
sS'tibia'
p280
I620778
sS'gravy'
p281
I1441099
sS'shall'
p282
I191963867
sS'shale'
p283
I769742
sS'mouth'
p284
I22880351
sS'phase'
p285
I40722940
sS'grave'
p286
I6929008
sS'shalt'
p287
I1854326
sS'dummy'
p288
I3230609
sS'grove'
p289
I15189493
sS'mushy'
p290
I275321
sS'alarm'
p291
I17059844
sS'metal'
p292
I56181783
sS'swamp'
p293
I2575587
sS'curio'
p294
I506765
sS'fussy'
p295
I435961
sS'crust'
p296
I2267452
sS'queen'
p297
I32366847
sS'musty'
p298
I237343
sS'undue'
p299
I1377567
sS'radii'
p300
I575939
sS'gauge'
p301
I9952466
sS'ulcer'
p302
I1336605
sS'queer'
p303
I2717979
sS'wrung'
p304
I121159
sS'earth'
p305
I61059905
sS'toast'
p306
I3262695
sS'stoop'
p307
I360440
sS'spite'
p308
I4493143
sS'buxom'
p309
I237464
sS'sugar'
p310
I22450333
sS'theme'
p311
I37219937
sS'bliss'
p312
I3708978
sS'lodge'
p313
I21541130
sS'minty'
p314
I218953
sS'hoard'
p315
I433375
sS'axiom'
p316
I1495473
sS'axion'
p317
I276049
sS'edict'
p318
I382916
sS'plate'
p319
I24275560
sS'waltz'
p320
I1723021
sS'agape'
p321
I414471
sS'ardor'
p322
I155258
sS'watch'
p323
I92006970
sS'fluid'
p324
I12943336
sS'coast'
p325
I47716394
sS'nasty'
p326
I7434847
sS'prune'
p327
I688443
sS'abyss'
p328
I1152408
sS'beady'
p329
I87974
sS'bloat'
p330
I315923
sS'unmet'
p331
I590631
sS'disco'
p332
I7067687
sS'twice'
p333
I19945569
sS'erupt'
p334
I300083
sS'stead'
p335
I724786
sS'troop'
p336
I2609404
sS'cower'
p337
I95006
sS'dowel'
p338
I285802
sS'steak'
p339
I4413680
sS'steal'
p340
I6257493
sS'steam'
p341
I11141309
sS'ghoul'
p342
I247064
sS'swept'
p343
I2612095
sS'habit'
p344
I4880657
sS'wrest'
p345
I185267
sS'inept'
p346
I458533
sS'ficus'
p347
I278867
sS'snuff'
p348
I861230
sS'moron'
p349
I1017416
sS'guilt'
p350
I3623942
sS'scrap'
p351
I3757085
sS'extol'
p352
I149713
sS'score'
p353
I69315004
sS'scram'
p354
I139774
sS'scorn'
p355
I622924
sS'drawn'
p356
I14827380
sS'drawl'
p357
I112289
sS'clued'
p358
I125391
sS'credo'
p359
I446499
sS'biome'
p360
I174268
sS'weary'
p361
I1632945
sS'adage'
p362
I419158
sS'spurt'
p363
I325911
sS'motto'
p364
I1894147
sS'mucky'
p365
I111308
sS'conch'
p366
I379190
sS'fault'
p367
I13112664
sS'jelly'
p368
I3698541
sS'askew'
p369
I473664
sS'facet'
p370
I1221287
sS'gamer'
p371
I3144985
sS'logic'
p372
I23989892
sS'login'
p373
I144200144
sS'argue'
p374
I8353605
sS'tough'
p375
I13560922
sS'spear'
p376
I2942538
sS'elfin'
p377
I168528
sS'lowly'
p378
I543486
sS'wider'
p379
I8186703
sS'trust'
p380
I55157142
sS'truss'
p381
I1484384
sS'ether'
p382
I1877315
sS'panel'
p383
I53784382
sS'speak'
p384
I31324712
sS'bingo'
p385
I9539002
sS'aback'
p386
I272920
sS'petty'
p387
I3195594
sS'nicer'
p388
I1239249
sS'recur'
p389
I378119
sS'basis'
p390
I59901425
sS'union'
p391
I72603888
sS'binge'
p392
I850412
sS'three'
p393
I223417394
sS'erect'
p394
I2057313
sS'frisk'
p395
I152512
sS'basic'
p396
I84840226
sS'basil'
p397
I2757419
sS'basin'
p398
I10544774
sS'leech'
p399
I698609
sS'threw'
p400
I4410853
sS'obese'
p401
I1673406
sS'joust'
p402
I160309
sS'craft'
p403
I16528294
sS'hoist'
p404
I905107
sS'child'
p405
I119747393
sS'catch'
p406
I20400979
sS'chili'
p407
I4553187
sS'snipe'
p408
I425778
sS'chill'
p409
I4489643
sS'raspy'
p410
I105094
sS'voice'
p411
I64600528
sS'smoky'
p412
I1818184
sS'spawn'
p413
I1908837
sS'seven'
p414
I44224906
sS'broth'
p415
I1297117
sS'sushi'
p416
I3488691
sS'sting'
p417
I2773263
sS'shame'
p418
I6785296
sS'dizzy'
p419
I1424316
sS'brake'
p420
I9321885
sS'exile'
p421
I2801261
sS'apnea'
p422
I950562
sS'mouse'
p423
I33667003
sS'stint'
p424
I855795
sS'sever'
p425
I686306
sS'grown'
p426
I13931521
sS'growl'
p427
I461820
sS'belle'
p428
I5820002
sS'wound'
p429
I5820050
sS'belly'
p430
I7346354
sS'bunny'
p431
I5730050
sS'wheel'
p432
I25342937
sS'moose'
p433
I3581329
sS'screw'
p434
I8177263
sS'welsh'
p435
I7346867
sS'swell'
p436
I2213445
sS'lumpy'
p437
I296904
sS'overt'
p438
I871540
sS'cycle'
p439
I29585286
sS'wispy'
p440
I119494
sS'scone'
p441
I213031
sS'mammy'
p442
I145805
sS'taint'
p443
I375008
sS'ocean'
p444
I31928741
sS'boxer'
p445
I3592432
sS'mamma'
p446
I1368416
sS'birth'
p447
I36286070
sS'kinky'
p448
I3254161
sS'photo'
p449
I227125249
sS'beset'
p450
I373969
sS'human'
p451
I160573748
sS'tilde'
p452
I344748
sS'roach'
p453
I3017586
sS'lasso'
p454
I573529
sS'snout'
p455
I258314
sS'nudge'
p456
I942601
sS'furry'
p457
I1887389
sS'thick'
p458
I14030556
sS'royal'
p459
I45407189
sS'hilly'
p460
I511265
sS'exalt'
p461
I193526
sS'shout'
p462
I3965861
sS'scree'
p463
I148396
sS'eking'
p464
I26695
sS'board'
p465
I212361059
sS'reuse'
p466
I3950428
sS'quirk'
p467
I444069
sS'natal'
p468
I3010028
sS'barge'
p469
I1319916
sS'judge'
p470
I30905832
sS'poser'
p471
I1361002
sS'burnt'
p472
I3221640
sS'befit'
p473
I31021
sS'rumor'
p474
I2455494
sS'apart'
p475
I16507181
sS'afire'
p476
I113772
sS'ditto'
p477
I1386002
sS'swill'
p478
I92032
sS'bobby'
p479
I8964342
sS'parka'
p480
I688453
sS'midge'
p481
I308737
sS'ditty'
p482
I281979
sS'night'
p483
I130531484
sS'augur'
p484
I120764
sS'right'
p485
I273620358
sS'creek'
p486
I38159464
sS'crowd'
p487
I11409218
sS'creed'
p488
I3398609
sS'crown'
p489
I16651038
sS'maxim'
p490
I3820484
sS'revel'
p491
I546018
sS'usher'
p492
I4948609
sS'creep'
p493
I1811981
sS'humor'
p494
I18085495
sS'manor'
p495
I7084688
sS'rhino'
p496
I2619135
sS'witty'
p497
I1753886
sS'sower'
p498
I137381
sS'beget'
p499
I119815
sS'khaki'
p500
I1481504
sS'brawl'
p501
I567755
sS'brawn'
p502
I191036
sS'lefty'
p503
I978333
sS'cabby'
p504
I61542
sS'super'
p505
I66703287
sS'shuck'
p506
I116293
sS'chafe'
p507
I118832
sS'chaff'
p508
I294863
sS'bylaw'
p509
I1070798
sS'diner'
p510
I2261961
sS'coral'
p511
I8818272
sS'choke'
p512
I1448146
sS'caulk'
p513
I245944
sS'anime'
p514
I31334688
sS'idyll'
p515
I120651
sS'azure'
p516
I1042257
sS'rigor'
p517
I513599
sS'rebus'
p518
I227042
sS'curry'
p519
I4029540
sS'rebut'
p520
I235254
sS'emcee'
p521
I294621
sS'croak'
p522
I169181
sS'nerve'
p523
I6567418
sS'gauze'
p524
I556178
sS'agile'
p525
I1808955
sS'civic'
p526
I10283668
sS'civil'
p527
I49495349
sS'float'
p528
I8808655
sS'bound'
p529
I22303643
sS'mocha'
p530
I933522
sS'slurp'
p531
I495920
sS'taffy'
p532
I411033
sS'mambo'
p533
I5164902
sS'chime'
p534
I1115076
sS'guppy'
p535
I233792
sS'sally'
p536
I5933047
sS'frill'
p537
I99652
sS'fight'
p538
I30784313
sS'avail'
p539
I3902711
sS'width'
p540
I25182453
sS'untie'
p541
I146576
sS'happy'
p542
I63471922
sS'snowy'
p543
I1631719
sS'knoll'
p544
I965905
sS'uncle'
p545
I8127694
sS'solar'
p546
I20423792
sS'furor'
p547
I177433
sS'beech'
p548
I2327119
sS'otter'
p549
I1662335
sS'reset'
p550
I10021033
sS'dowry'
p551
I275011
sS'prowl'
p552
I343421
sS'lorry'
p553
I549887
sS'twixt'
p554
I73594
sS'adore'
p555
I1176240
sS'rerun'
p556
I763880
sS'daddy'
p557
I9211193
sS'penal'
p558
I1467202
sS'adopt'
p559
I11272339
sS'aorta'
p560
I641057
sS'filly'
p561
I499537
sS'gland'
p562
I2561362
sS'exist'
p563
I25349128
sS'cacao'
p564
I331714
sS'check'
p565
I244491090
sS'graft'
p566
I1576259
sS'junto'
p567
I128329
sS'vista'
p568
I13991160
sS'smelt'
p569
I301053
sS'dying'
p570
I9123557
sS'floor'
p571
I53759851
sS'stake'
p572
I5061965
sS'excel'
p573
I14133468
sS'actor'
p574
I16282891
sS'junta'
p575
I629394
sS'flood'
p576
I13979267
sS'holly'
p577
I6834032
sS'depot'
p578
I9688338
sS'smell'
p579
I6642666
sS'tardy'
p580
I303140
sS'sling'
p581
I1688770
sS'slink'
p582
I196197
sS'retry'
p583
I916420
sS'reign'
p584
I3505605
sS'stoke'
p585
I2552684
sS'detox'
p586
I2297343
sS'omega'
p587
I10289113
sS'lunge'
p588
I199129
sS'glass'
p589
I63559754
sS'navel'
p590
I1503077
sS'yacht'
p591
I5932756
sS'daily'
p592
I105837757
sS'loyal'
p593
I4498834
sS'teeth'
p594
I9769437
sS'igloo'
p595
I397625
sS'coach'
p596
I24514961
sS'chain'
p597
I35928367
sS'dance'
p598
I51147967
sS'datum'
p599
I2226219
sS'focus'
p600
I65626732
sS'skate'
p601
I4932092
sS'chair'
p602
I40764005
sS'guava'
p603
I259541
sS'grape'
p604
I3638159
sS'flask'
p605
I1150132
sS'graph'
p606
I15526746
sS'flash'
p607
I68391647
sS'amaze'
p608
I791672
sS'quasi'
p609
I2804115
sS'quash'
p610
I204823
sS'swoop'
p611
I467481
sS'melon'
p612
I1355214
sS'macho'
p613
I797523
sS'brown'
p614
I64112042
sS'slash'
p615
I2935535
sS'yeast'
p616
I6083904
sS'vegan'
p617
I2642418
sS'hutch'
p618
I1373107
sS'mourn'
p619
I779010
sS'lynch'
p620
I4920597
sS'blast'
p621
I9387171
sS'exact'
p622
I22304937
sS'femur'
p623
I446209
sS'level'
p624
I202563642
sS'leave'
p625
I70957750
sS'quick'
p626
I85584600
sS'lever'
p627
I3566558
sS'woven'
p628
I4248524
sS'round'
p629
I61836702
sS'shave'
p630
I2580057
sS'upper'
p631
I38341510
sS'brave'
p632
I5221356
sS'villa'
p633
I17587586
sS'trend'
p634
I15747018
sS'bravo'
p635
I2772503
sS'cyber'
p636
I9289150
sS'droit'
p637
I750988
sS'dried'
p638
I6331606
sS'baler'
p639
I153800
sS'cargo'
p640
I9748668
sS'curse'
p641
I3982181
sS'spire'
p642
I725421
sS'havoc'
p643
I1692191
sS'axial'
p644
I1685087
sS'reply'
p645
I184777992
sS'boost'
p646
I13675076
sS'hairy'
p647
I19060619
sS'dwarf'
p648
I3072068
sS'bloke'
p649
I766763
sS'clerk'
p650
I11923960
sS'water'
p651
I215178488
sS'guise'
p652
I767344
sS'fluke'
p653
I1168887
sS'witch'
p654
I6671560
sS'eerie'
p655
I772484
sS'alone'
p656
I39326417
sS'gorge'
p657
I1950264
sS'along'
p658
I83444756
sS'sieve'
p659
I851108
sS'whisk'
p660
I591308
sS'boast'
p661
I1239080
sS'aloft'
p662
I497342
sS'dusty'
p663
I2339959
sS'shift'
p664
I19811555
sS'proud'
p665
I17167504
sS'queue'
p666
I7398569
sS'trial'
p667
I56547673
sS'prude'
p668
I93351
sS'triad'
p669
I1519533
sS'weird'
p670
I11556427
sS'nylon'
p671
I10410171
sS'elect'
p672
I5748899
sS'kebab'
p673
I248067
sS'extra'
p674
I59377307
sS'tweak'
p675
I1705761
sS'plumb'
p676
I631703
sS'kayak'
p677
I2628993
sS'thrum'
p678
I28106
sS'verge'
p679
I1422550
sS'islet'
p680
I488105
sS'carol'
p681
I11109404
sS'abase'
p682
I29383
sS'vivid'
p683
I4479514
sS'prove'
p684
I16046788
sS'angry'
p685
I9267505
sS'visit'
p686
I187062316
sS'papal'
p687
I754586
sS'filmy'
p688
I657205
sS'etude'
p689
I338721
sS'scope'
p690
I23349420
sS'today'
p691
I239271204
sS'altar'
p692
I2627835
sS'ninny'
p693
I38726
sS'deign'
p694
I94806
sS'ovine'
p695
I146663
sS'drown'
p696
I1156106
sS'rigid'
p697
I4240019
sS'olive'
p698
I9298184
sS'crimp'
p699
I640746
sS'gassy'
p700
I63283
sS'savoy'
p701
I1246516
sS'purge'
p702
I1366135
sS'ferry'
p703
I9208954
sS'fauna'
p704
I2298940
sS'geeky'
p705
I987806
sS'claim'
p706
I40085342
sS'crazy'
p707
I23032837
sS'trump'
p708
I2879094
sS'sense'
p709
I52629633
sS'agent'
p710
I57103658
sS'topic'
p711
I149001702
sS'heard'
p712
I45436523
sS'abort'
p713
I1569892
sS'stole'
p714
I2814273
sS'occur'
p715
I24679212
sS'craze'
p716
I962477
sS'drama'
p717
I20939845
sS'bigot'
p718
I258267
sS'arbor'
p719
I5057261
sS'savor'
p720
I506115
sS'write'
p721
I126645151
sS'ruder'
p722
I89666
sS'vital'
p723
I14166642
sS'sword'
p724
I8835685
sS'swore'
p725
I663914
sS'sworn'
p726
I2332355
sS'cavil'
p727
I27985
sS'clone'
p728
I9284578
sS'scoff'
p729
I177728
sS'latte'
p730
I783412
sS'evoke'
p731
I804417
sS'crepe'
p732
I768351
sS'waist'
p733
I5013500
sS'maybe'
p734
I51895609
sS'amuse'
p735
I554922
sS'nosey'
p736
I132182
sS'mango'
p737
I2171900
sS'truck'
p738
I32136249
sS'gamma'
p739
I35426622
sS'mange'
p740
I250483
sS'truce'
p741
I897431
sS'manga'
p742
I12774174
sS'stilt'
p743
I188393
sS'hotly'
p744
I364264
sS'rabbi'
p745
I3488700
sS'haute'
p746
I1863024
sS'shaky'
p747
I766843
sS'blare'
p748
I49365
sS'brain'
p749
I33612784
sS'yearn'
p750
I300957
sS'lyric'
p751
I6970278
sS'pitch'
p752
I9800556
sS'equip'
p753
I4044391
sS'deity'
p754
I1262430
sS'still'
p755
I190433487
sS'froze'
p756
I594804
sS'ethic'
p757
I1333320
sS'group'
p758
I321842984
sS'thank'
p759
I63234550
sS'curly'
p760
I2231026
sS'nymph'
p761
I697326
sS'satyr'
p762
I136838
sS'thump'
p763
I456603
sS'tiara'
p764
I923335
sS'leggy'
p765
I182670
sS'limbo'
p766
I847468
sS'apron'
p767
I1617357
sS'tonic'
p768
I1393402
sS'fling'
p769
I682999
sS'lunch'
p770
I20807419
sS'flint'
p771
I3230800
sS'recap'
p772
I2861982
sS'ensue'
p773
I347067
sS'bawdy'
p774
I160667
sS'wagon'
p775
I5198530
sS'opera'
p776
I18225169
sS'fudge'
p777
I1969555
sS'trope'
p778
I109419
sS'vogue'
p779
I2159792
sS'edify'
p780
I69341
sS'cairn'
p781
I688283
sS'torch'
p782
I3360286
sS'goose'
p783
I3739382
sS'owing'
p784
I2399321
sS'zebra'
p785
I2902469
sS'begun'
p786
I8636352
sS'aloof'
p787
I294291
sS'album'
p788
I77914316
sS'shown'
p789
I68755779
sS'space'
p790
I121505269
sS'irony'
p791
I2212193
sS'abide'
p792
I3722809
sS'splat'
p793
I350981
sS'showy'
p794
I294798
sS'dutch'
p795
I19000979
sS'roger'
p796
I15353411
sS'eagle'
p797
I16785232
sS'booby'
p798
I379438
sS'thong'
p799
I7747699
sS'siege'
p800
I2518421
sS'hefty'
p801
I905281
sS'quark'
p802
I2286617
sS'quart'
p803
I2002127
sS'flyer'
p804
I5718564
sS'rebel'
p805
I6527810
sS'spied'
p806
I294373
sS'cough'
p807
I3451640
sS'flare'
p808
I2190533
sS'gusto'
p809
I512932
sS'kneel'
p810
I417602
sS'thing'
p811
I97451660
sS'funky'
p812
I5587279
sS'place'
p813
I220970235
sS'swine'
p814
I1578713
sS'swing'
p815
I12734467
sS'truer'
p816
I254461
sS'think'
p817
I217856550
sS'first'
p818
I578161543
sS'blind'
p819
I16485480
sS'feign'
p820
I116753
sS'blink'
p821
I5257629
sS'suing'
p822
I816011
sS'carry'
p823
I33056477
sS'array'
p824
I25150016
sS'drove'
p825
I5545848
sS'sheep'
p826
I8962638
sS'given'
p827
I125542966
sS'burly'
p828
I250632
sS'sheet'
p829
I44295187
sS'wrath'
p830
I2486700
sS'stuck'
p831
I9120620
sS'murky'
p832
I532036
sS'slept'
p833
I2370802
sS'pupal'
p834
I68283
sS'draft'
p835
I35033621
sS'fiery'
p836
I1838655
sS'daunt'
p837
I38855
sS'white'
p838
I209863729
sS'circa'
p839
I3475462
sS'bushy'
p840
I445882
sS'sheen'
p841
I1124463
sS'gaudy'
p842
I248813
sS'revue'
p843
I1290094
sS'shawl'
p844
I1011728
sS'antic'
p845
I147936
sS'grunt'
p846
I616546
sS'rival'
p847
I4298220
sS'folly'
p848
I1367992
sS'rehab'
p849
I6460331
sS'posit'
p850
I292597
sS'lurid'
p851
I226354
sS'scuba'
p852
I6366349
sS'angel'
p853
I25294123
sS'saute'
p854
I546457
sS'alley'
p855
I4541475
sS'boule'
p856
I116726
sS'greet'
p857
I1784219
sS'anger'
p858
I7991036
sS'matey'
p859
I104596
sS'clung'
p860
I365864
sS'squat'
p861
I925062
sS'knead'
p862
I235592
sS'offer'
p863
I126228968
sS'aside'
p864
I11768649
sS'masse'
p865
I515818
sS'ideal'
p866
I26036289
sS'squad'
p867
I8744772
sS'haste'
p868
I1059853
sS'blunt'
p869
I4129800
sS'begin'
p870
I45434902
sS'tally'
p871
I1812605
sS'prick'
p872
I891337
sS'trace'
p873
I11697252
sS'track'
p874
I112385243
sS'price'
p875
I501651226
sS'plied'
p876
I243191
sS'aping'
p877
I42534
sS'tract'
p878
I5897046
sS'canny'
p879
I209480
sS'annul'
p880
I146490
sS'renal'
p881
I4494106
sS'angst'
p882
I1232364
sS'later'
p883
I84857974
sS'drive'
p884
I107799371
sS'tooth'
p885
I5551049
sS'scowl'
p886
I115386
sS'sigma'
p887
I11864409
sS'slope'
p888
I6469975
sS'perch'
p889
I1235177
sS'cobra'
p890
I4412823
sS'fishy'
p891
I658490
sS'cheat'
p892
I9903572
sS'glaze'
p893
I1431525
sS'cheap'
p894
I97049762
sS'mince'
p895
I328039
sS'merit'
p896
I6450895
sS'fifty'
p897
I8133138
sS'fecal'
p898
I1032064
sS'brunt'
p899
I489270
sS'flack'
p900
I408860
sS'fifth'
p901
I16255266
sS'fibre'
p902
I5134463
sS'snack'
p903
I3847152
sS'ratio'
p904
I26457942
sS'nadir'
p905
I353146
sS'stair'
p906
I2012524
sS'title'
p907
I196676017
sS'gourd'
p908
I502106
sS'plume'
p909
I1269109
sS'cloak'
p910
I1450056
sS'crime'
p911
I40361756
sS'staid'
p912
I194345
sS'going'
p913
I155284081
sS'black'
p914
I244690155
sS'helix'
p915
I2921411
sS'teary'
p916
I137396
sS'stain'
p917
I3512824
sS'plump'
p918
I3386553
sS'hippo'
p919
I1146063
sS'clank'
p920
I265523
sS'skulk'
p921
I24018
sS'stomp'
p922
I1168038
sS'clang'
p923
I187651
sS'truly'
p924
I21693553
sS'loath'
p925
I151677
sS'hippy'
p926
I608617
sS'hedge'
p927
I4041429
sS'prime'
p928
I38308402
sS'primo'
p929
I912120
sS'cumin'
p930
I612220
sS'yield'
p931
I15022494
sS'joker'
p932
I1492319
sS'bison'
p933
I2002028
sS'ruddy'
p934
I387590
sS'sonar'
p935
I1341822
sS'where'
p936
I360468339
sS'burst'
p937
I5147573
sS'spore'
p938
I589081
sS'unfit'
p939
I814145
sS'horse'
p940
I58453720
sS'afoul'
p941
I159727
sS'abled'
p942
I122479
sS'sport'
p943
I62683851
sS'diver'
p944
I2452406
sS'mecca'
p945
I1298392
sS'giddy'
p946
I483433
sS'diode'
p947
I1897828
sS'label'
p948
I41359857
sS'moldy'
p949
I208515
sS'nerdy'
p950
I431324
sS'pluck'
p951
I891481
sS'blame'
p952
I8170544
sS'adept'
p953
I1595303
sS'spare'
p954
I10009522
sS'tacit'
p955
I594255
sS'broil'
p956
I479526
sS'spark'
p957
I4842423
sS'quack'
p958
I484886
sS'latch'
p959
I1777882
sS'rugby'
p960
I12992179
sS'icily'
p961
I21127
sS'quiet'
p962
I16746894
sS'belie'
p963
I103562
sS'berry'
p964
I7551906
sS'comet'
p965
I3116034
sS'adorn'
p966
I464591
sS'evict'
p967
I211591
sS'among'
p968
I83431590
sS'cabal'
p969
I531622
sS'spoil'
p970
I1419320
sS'color'
p971
I112965658
sS'spank'
p972
I5416004
sS'slain'
p973
I1281084
sS'colon'
p974
I5494297
sS'freak'
p975
I3908219
sS'teddy'
p976
I5602073
sS'coupe'
p977
I4874541
sS'jerky'
p978
I763325
sS'avian'
p979
I2877167
sS'tiger'
p980
I13763074
sS'foggy'
p981
I704386
sS'those'
p982
I270014141
sS'pilot'
p983
I21909830
sS'sound'
p984
I100010833
sS'shaft'
p985
I6431372
sS'kappa'
p986
I2793667
sS'these'
p987
I541003982
sS'sauce'
p988
I10968629
sS'mount'
p989
I36648260
sS'trick'
p990
I8208473
sS'impel'
p991
I86447
sS'crump'
p992
I328553
sS'mound'
p993
I2259654
sS'trice'
p994
I354532
sS'girth'
p995
I492919
sS'bathe'
p996
I494252
sS'canoe'
p997
I3790795
sS'mucus'
p998
I600467
sS'purse'
p999
I5488891
sS'exult'
p1000
I151420
sS'parse'
p1001
I3698919
sS'hymen'
p1002
I341598
sS'zonal'
p1003
I536783
sS'utile'
p1004
I287546
sS'worry'
p1005
I13243591
sS'woken'
p1006
I364304
sS'spunk'
p1007
I404915
sS'harsh'
p1008
I4087715
sS'media'
p1009
I216432510
sS'medic'
p1010
I1122716
sS'demur'
p1011
I45556
sS'aphid'
p1012
I295138
sS'epoch'
p1013
I1680235
sS'leant'
p1014
I101406
sS'noble'
p1015
I12604679
sS'tipsy'
p1016
I279464
sS'munch'
p1017
I699127
sS'dimly'
p1018
I342692
sS'fruit'
p1019
I22767191
sS'arose'
p1020
I2609029
sS'vowel'
p1021
I1033509
sS'resin'
p1022
I4966700
sS'weave'
p1023
I1965230
sS'purer'
p1024
I145370
sS'drain'
p1025
I6411642
sS'macro'
p1026
I9885853
sS'rupee'
p1027
I2831536
sS'ranch'
p1028
I10539650
sS'solve'
p1029
I13452150
sS'puree'
p1030
I438733
sS'genie'
p1031
I1627726
sS'model'
p1032
I161205740
sS'modem'
p1033
I15984492
sS'usurp'
p1034
I171456
sS'being'
p1035
I242783091
sS'money'
p1036
I190205072
sS'slime'
p1037
I869502
sS'ninth'
p1038
I4390562
sS'slimy'
p1039
I346686
sS'cease'
p1040
I4081957
sS'touch'
p1041
I36831035
sS'satin'
p1042
I6620674
sS'sulky'
p1043
I156355
sS'rover'
p1044
I8537021
sS'death'
p1045
I83216831
sS'forgo'
p1046
I340426
sS'terse'
p1047
I287692
sS'verse'
p1048
I7469512
sS'borax'
p1049
I172497
sS'dully'
p1050
I66436
sS'verso'
p1051
I788583
sS'skier'
p1052
I863046
sS'idiom'
p1053
I554390
sS'hover'
p1054
I1553261
sS'frown'
p1055
I742356
sS'stunk'
p1056
I76458
sS'larva'
p1057
I462298
sS'ruler'
p1058
I2615554
sS'stung'
p1059
I404657
sS'early'
p1060
I100013194
sS'swirl'
p1061
I1251090
sS'snarl'
p1062
I184639
sS'stunt'
p1063
I1754828
sS'snare'
p1064
I1311615
sS'vague'
p1065
I2783775
sS'crock'
p1066
I918524
sS'acute'
p1067
I11128841
sS'towel'
p1068
I4901668
sS'dingo'
p1069
I420174
sS'oddly'
p1070
I1385252
sS'maker'
p1071
I16635947
sS'snort'
p1072
I1522943
sS'friar'
p1073
I422181
sS'tower'
p1074
I20686918
sS'inter'
p1075
I15269346
sS'pushy'
p1076
I255990
sS'titan'
p1077
I3974407
sS'tarot'
p1078
I3561389
sS'magma'
p1079
I992528
sS'erase'
p1080
I3086642
sS'evade'
p1081
I605626
sS'spasm'
p1082
I391339
sS'viral'
p1083
I5969493
sS'slice'
p1084
I4628779
sS'payee'
p1085
I611882
sS'freer'
p1086
I534734
sS'slick'
p1087
I2372634
sS'legal'
p1088
I142048771
sS'nutty'
p1089
I686428
sS'lunar'
p1090
I3611744
sS'ethos'
p1091
I946491
sS'knife'
p1092
I11297715
sS'freed'
p1093
I2683280
sS'shorn'
p1094
I142311
sS'wheat'
p1095
I8685589
sS'arrow'
p1096
I11563142
sS'power'
p1097
I226596368
sS'throb'
p1098
I212889
sS'sixth'
p1099
I9920054
sS'poise'
p1100
I339263
sS'pooch'
p1101
I348386
sS'sixty'
p1102
I4851534
sS'throw'
p1103
I15751985
sS'dicey'
p1104
I161963
sS'stone'
p1105
I42494931
sS'opium'
p1106
I1330299
sS'piety'
p1107
I595389
sS'tease'
p1108
I2019275
sS'smear'
p1109
I1289528
sS'tumor'
p1110
I7430480
sS'stand'
p1111
I46292709
sS'knave'
p1112
I149542
sS'stank'
p1113
I100733
sS'stony'
p1114
I1907651
sS'amber'
p1115
I11065507
sS'heavy'
p1116
I37668153
sS'vicar'
p1117
I825292
sS'image'
p1118
I197874283
sS'inbox'
p1119
I5845223
sS'strip'
p1120
I18711440
sS'pivot'
p1121
I1734444
sS'stare'
p1122
I1925618
sS'gleam'
p1123
I356949
sS'glean'
p1124
I232952
sS'there'
p1125
I701170205
sS'hunky'
p1126
I279599
sS'brute'
p1127
I1216912
sS'stark'
p1128
I3479265
sS'start'
p1129
I161913408
sS'missy'
p1130
I1925451
sS'leach'
p1131
I1516929
sS'spicy'
p1132
I3170817
sS'relic'
p1133
I947341
sS'groan'
p1134
I473578
sS'buggy'
p1135
I1955438
sS'duchy'
p1136
I339003
sS'lymph'
p1137
I1781845
sS'rouse'
p1138
I812361
sS'spice'
p1139
I7120274
sS'fraud'
p1140
I15378751
sS'tripe'
p1141
I215448
sS'ember'
p1142
I488846
sS'flirt'
p1143
I1817719
sS'dirty'
p1144
I16101662
sS'verve'
p1145
I1218256
sS'grasp'
p1146
I3270025
sS'embed'
p1147
I1217930
sS'grass'
p1148
I12868953
sS'torso'
p1149
I1769562
sS'agree'
p1150
I47500911
sS'gumbo'
p1151
I467464
sS'taste'
p1152
I17311343
sS'intro'
p1153
I11938092
sS'tasty'
p1154
I3565676
sS'slosh'
p1155
I51634
sS'creak'
p1156
I124122
sS'mover'
p1157
I2309084
sS'hound'
p1158
I2228633
sS'allay'
p1159
I203474
sS'cream'
p1160
I25898758
sS'again'
p1161
I150781416
sS'idiot'
p1162
I4635830
sS'tight'
p1163
I17981854
sS'prism'
p1164
I2648058
sS'valid'
p1165
I57094711
sS'puppy'
p1166
I6662287
sS'paddy'
p1167
I1668962
sS'sully'
p1168
I458846
sS'polar'
p1169
I7715471
sS'annex'
p1170
I8465905
sS'drift'
p1171
I3889505
sS'slant'
p1172
I1313083
sS'terra'
p1173
I3747696
sS'brass'
p1174
I14298573
sS'slang'
p1175
I1817718
sS'thorn'
p1176
I1421673
sS'groom'
p1177
I2637912
sS'curve'
p1178
I11071177
sS'curvy'
p1179
I360365
sS'repay'
p1180
I1746487
sS'sewer'
p1181
I5008805
sS'corer'
p1182
I96129
sS'husky'
p1183
I1606901
sS'ovary'
p1184
I1003163
sS'unset'
p1185
I1035406
sS'caste'
p1186
I1166877
sS'retch'
p1187
I37821
sS'neigh'
p1188
I211412
sS'month'
p1189
I123027963
sS'pique'
p1190
I664313
sS'slung'
p1191
I253265
sS'slunk'
p1192
I40167
sS'dairy'
p1193
I8781961
sS'smile'
p1194
I13893537
sS'cress'
p1195
I279364
sS'crest'
p1196
I5477034
sS'woman'
p1197
I70613606
sS'worse'
p1198
I15677739
sS'puffy'
p1199
I3488647
sS'baton'
p1200
I4229776
sS'scout'
p1201
I6176157
sS'worst'
p1202
I16975343
sS'scour'
p1203
I411478
sS'awful'
p1204
I5217370
sS'crumb'
p1205
I673404
sS'ramen'
p1206
I373754
sS'cable'
p1207
I70082598
sS'heist'
p1208
I419629
sS'aunty'
p1209
I239524
sS'large'
p1210
I165863763
sS'amend'
p1211
I7806844
sS'dusky'
p1212
I390563
sS'harry'
p1213
I33867934
sS'small'
p1214
I208371878
sS'flick'
p1215
I2226500
sS'fence'
p1216
I6796605
sS'plaid'
p1217
I1679093
sS'irate'
p1218
I256072
sS'aptly'
p1219
I598371
sS'inert'
p1220
I935898
sS'gonad'
p1221
I95676
sS'stood'
p1222
I11116275
sS'clock'
p1223
I26624872
sS'whiff'
p1224
I246582
sS'stool'
p1225
I3031945
sS'brief'
p1226
I32599674
sS'crush'
p1227
I3576348
sS'nurse'
p1228
I16772151
sS'plush'
p1229
I4692870
sS'twang'
p1230
I243118
sS'fugue'
p1231
I400733
sS'loose'
p1232
I12556710
sS'trunk'
p1233
I11020361
sS'arena'
p1234
I13966572
sS'bible'
p1235
I45080741
sS'naval'
p1236
I8091649
sS'ahead'
p1237
I28375319
sS'whine'
p1238
I832743
sS'whiny'
p1239
I225341
sS'prior'
p1240
I62949059
sS'milky'
p1241
I1515925
sS'swoon'
p1242
I248694
sS'bused'
p1243
I62772
sS'riser'
p1244
I969986
sS'taker'
p1245
I625940
sS'faint'
p1246
I2565744
sS'wield'
p1247
I419233
sS'pearl'
p1248
I18707334
sS'inlay'
p1249
I965778
sS'libel'
p1250
I866830
sS'taken'
p1251
I87019836
sS'tacky'
p1252
I519106
sS'minor'
p1253
I29782623
sS'waxen'
p1254
I31767
sS'turbo'
p1255
I10058686
sS'erode'
p1256
I774411
sS'canon'
p1257
I41144763
sS'brisk'
p1258
I774000
sS'nomad'
p1259
I1422041
sS'stick'
p1260
I22399126
sS'broke'
p1261
I10460811
sS'known'
p1262
I86395556
sS'hurry'
p1263
I3536968
sS'krill'
p1264
I208654
sS'aglow'
p1265
I110328
sS'grill'
p1266
I10254124
sS'berth'
p1267
I1056010
sS'learn'
p1268
I179428286
sS'grope'
p1269
I160148
sS'swash'
p1270
I265955
sS'shark'
p1271
I5904454
sS'snuck'
p1272
I274495
sS'share'
p1273
I119294241
sS'shard'
p1274
I287428
sS'unzip'
p1275
I1014009
sS'salty'
p1276
I1196416
sS'arise'
p1277
I8337093
sS'sharp'
p1278
I24904199
sS'swung'
p1279
I867135
sS'dress'
p1280
I27318959
sS'icing'
p1281
I1277602
sS'siren'
p1282
I1354779
sS'court'
p1283
I127719981
sS'needy'
p1284
I1636137
sS'dilly'
p1285
I161256
sS'cling'
p1286
I946281
sS'sprig'
p1287
I143773
sS'clink'
p1288
I164177
sS'tepee'
p1289
I52048
sS'bleat'
p1290
I144793
sS'plant'
p1291
I53247607
sS'lanky'
p1292
I146488
sS'tried'
p1293
I34201786
sS'rhyme'
p1294
I1530733
sS'sneak'
p1295
I2280877
sS'moult'
p1296
I75151
sS'plane'
p1297
I17799728
sS'blood'
p1298
I61348302
sS'waver'
p1299
I217064
sS'bloom'
p1300
I5456938
sS'plank'
p1301
I1265284
sS'bleak'
p1302
I1088632
sS'chute'
p1303
I834005
sS'short'
p1304
I106755242
sS'shady'
p1305
I2059463
sS'rowdy'
p1306
I510507
sS'stash'
p1307
I1553737
sS'shore'
p1308
I12568485
sS'dread'
p1309
I1649823
sS'shade'
p1310
I6996835
sS'sappy'
p1311
I216405
sS'dream'
p1312
I33518573
sS'patio'
p1313
I7627536
sS'wooly'
p1314
I256170
sS'sloop'
p1315
I295505
sS'urine'
p1316
I4903932
sS'trade'
p1317
I110086585
sS'radar'
p1318
I14982375
sS'paper'
p1319
I134939426
sS'dough'
p1320
I3032657
sS'hater'
p1321
I467834
sS'saucy'
p1322
I474568
sS'style'
p1323
I101024266
sS'glide'
p1324
I1731344
sS'heron'
p1325
I1576813
sS'bosom'
p1326
I712863
sS'abbey'
p1327
I4224864
sS'dross'
p1328
I154345
sS'dolly'
p1329
I2266400
sS'pesto'
p1330
I521625
sS'cutie'
p1331
I3305791
sS'might'
p1332
I123196001
sS'alter'
p1333
I7831337
sS'finer'
p1334
I1455912
sS'snide'
p1335
I238032
sS'vomit'
p1336
I767124
sS'ninja'
p1337
I4439780
sS'weedy'
p1338
I160228
sS'payer'
p1339
I1439009
sS'fully'
p1340
I48616832
sS'ashen'
p1341
I184747
sS'drake'
p1342
I4373046
sS'bless'
p1343
I5477461
sS'micro'
p1344
I22219932
sS'token'
p1345
I5672353
sS'goofy'
p1346
I1187234
sS'found'
p1347
I232005894
sS'fairy'
p1348
I6435300
sS'clamp'
p1349
I3639509
sS'wench'
p1350
I310447
sS'warty'
p1351
I111349
sS'house'
p1352
I231310420
sS'soapy'
p1353
I303519
sS'beret'
p1354
I330199
sS'wacky'
p1355
I1861879
sS'loopy'
p1356
I263368
sS'surly'
p1357
I372213
sS'bluer'
p1358
I80668
sS'heave'
p1359
I296454
sS'event'
p1360
I125515260
sS'silky'
p1361
I1749406
sS'since'
p1362
I214302926
sS'jolly'
p1363
I2522092
sS'wordy'
p1364
I180947
sS'print'
p1365
I178250872
sS'issue'
p1366
I128427156
sS'smock'
p1367
I220361
sS'fiber'
p1368
I15530318
sS'bully'
p1369
I1532418
sS'risen'
p1370
I2619862
sS'trite'
p1371
I287494
sS'guess'
p1372
I28743465
sS'proxy'
p1373
I10773043
sS'acorn'
p1374
I1825652
sS'teach'
p1375
I19079783
sS'algae'
p1376
I2068644
sS'pinky'
p1377
I672775
sS'golly'
p1378
I329846
sS'lemur'
p1379
I287912
sS'daisy'
p1380
I5124326
sS'blush'
p1381
I1722003
sS'clump'
p1382
I345355
sS'major'
p1383
I122592252
sS'fancy'
p1384
I8777135
sS'jetty'
p1385
I765224
sS'elder'
p1386
I7299470
sS'gazer'
p1387
I129741
sS'drier'
p1388
I679179
sS'heady'
p1389
I434375
sS'shoal'
p1390
I435185
sS'blank'
p1391
I18150537
sS'bland'
p1392
I1606490
sS'wager'
p1393
I1366964
sS'spree'
p1394
I1218040
sS'maple'
p1395
I9704551
sS'razor'
p1396
I3451657
sS'story'
p1397
I138433809
sS'guest'
p1398
I55293215
sS'swarm'
p1399
I1158175
sS'grime'
p1400
I514156
sS'comfy'
p1401
I1245404
sS'least'
p1402
I111229798
sS'nobly'
p1403
I118764
sS'stork'
p1404
I728360
sS'paint'
p1405
I21926890
sS'leash'
p1406
I1310125
sS'saint'
p1407
I38929141
sS'grimy'
p1408
I139160
sS'enact'
p1409
I1263603
sS'syrup'
p1410
I3108136
sS'store'
p1411
I291308910
sS'lease'
p1412
I17180592
sS'baggy'
p1413
I419677
sS'segue'
p1414
I234120
sS'storm'
p1415
I22242164
sS'bowel'
p1416
I2666510
sS'hotel'
p1417
I297974790
sS'basal'
p1418
I1821739
sS'rifle'
p1419
I5047417
sS'grace'
p1420
I17642126
sS'uncut'
p1421
I3929056
sS'tunic'
p1422
I727598
sS'vocal'
p1423
I9082826
sS'youth'
p1424
I51426255
sS'bride'
p1425
I8650665
sS'stall'
p1426
I2114252
sS'stalk'
p1427
I936028
sS'stale'
p1428
I1065657
sS'risky'
p1429
I2412508
sS'amass'
p1430
I181774
sS'macaw'
p1431
I261749
sS'exert'
p1432
I1109622
sS'mossy'
p1433
I470059
sS'juicy'
p1434
I3778910
sS'juice'
p1435
I10973425
sS'oaken'
p1436
I69075
sS'alike'
p1437
I6220739
sS'blond'
p1438
I5155053
sS'gnash'
p1439
I60339
sS'koala'
p1440
I922217
sS'rower'
p1441
I239796
sS'built'
p1442
I61502894
sS'umbra'
p1443
I321800
sS'couch'
p1444
I4581367
sS'onset'
p1445
I3858839
sS'moist'
p1446
I2140516
sS'build'
p1447
I77203075
sS'frail'
p1448
I696174
sS'donor'
p1449
I7096675
sS'banjo'
p1450
I1940675
sS'brace'
p1451
I2182960
sS'quoth'
p1452
I282770
sS'quote'
p1453
I139242226
sS'eater'
p1454
I1702828
sS'flute'
p1455
I4090740
sS'reach'
p1456
I35687918
sS'chart'
p1457
I35027490
sS'tryst'
p1458
I205722
sS'react'
p1459
I4126376
sS'virus'
p1460
I36286003
sS'charm'
p1461
I10554644
sS'eaten'
p1462
I3412832
sS'conic'
p1463
I216832
sS'alpha'
p1464
I27832836
sS'foyer'
p1465
I1042532
sS'tonga'
p1466
I4813052
sS'arson'
p1467
I989351
sS'seize'
p1468
I1908868
sS'clear'
p1469
I88447610
sS'cover'
p1470
I94501729
sS'coven'
p1471
I295821
sS'clean'
p1472
I45381752
sS'weigh'
p1473
I3587993
sS'unwed'
p1474
I125824
sS'notch'
p1475
I3302495
sS'blend'
p1476
I9680982
sS'tuber'
p1477
I243798
sS'lying'
p1478
I8260845
sS'hyper'
p1479
I3153749
sS'humid'
p1480
I1026485
sS'affix'
p1481
I444121
sS'boozy'
p1482
I71828
sS'tenet'
p1483
I834143
sS'booze'
p1484
I1178694
sS'felon'
p1485
I392714
sS'gully'
p1486
I800734
sS'chock'
p1487
I508651
sS'giant'
p1488
I17098874
sS'anvil'
p1489
I936808
sS'camel'
p1490
I11005001
sS'gooey'
p1491
I335656
sS'randy'
p1492
I8110369
sS'fiend'
p1493
I670385
sS'attic'
p1494
I3347389
sS'biddy'
p1495
I137910
sS'sunny'
p1496
I9497382
sS'strut'
p1497
I1271153
sS'theft'
p1498
I12744763
sS'frock'
p1499
I185379
sS'enemy'
p1500
I14084182
sS'fluff'
p1501
I814535
sS'badge'
p1502
I6145138
sS'tabby'
p1503
I504455
sS'ovate'
p1504
I143727
sS'enema'
p1505
I1329511
sS'river'
p1506
I78843808
sS'rivet'
p1507
I616847
sS'wrote'
p1508
I56421594
sS'bulky'
p1509
I1181562
sS'cramp'
p1510
I402123
sS'stump'
p1511
I1357079
sS'manly'
p1512
I1260481
sS'close'
p1513
I107853068
sS'gaily'
p1514
I131276
sS'blurt'
p1515
I86781
sS'movie'
p1516
I158421100
sS'creme'
p1517
I1724183
sS'kneed'
p1518
I71162
sS'flame'
p1519
I8527495
sS'atoll'
p1520
I908471
sS'blurb'
p1521
I776249
sS'spray'
p1522
I15148133
sS'rarer'
p1523
I296244
sS'genre'
p1524
I22344091
sS'condo'
p1525
I6444848
sS'dally'
p1526
I142954
sS'pagan'
p1527
I3805644
sS'harpy'
p1528
I107008
sS'gaunt'
p1529
I338487
sS'scamp'
p1530
I810996
sS'vault'
p1531
I5408483
sS'whole'
p1532
I85202530
sS'patty'
p1533
I2339693
sS'sloth'
p1534
I519428
sS'bongo'
p1535
I767108
sS'flier'
p1536
I542812
sS'point'
p1537
I175527859
sS'liken'
p1538
I132264
sS'sweet'
p1539
I32311923
sS'whelp'
p1540
I70407
sS'sweep'
p1541
I3623863
sS'gypsy'
p1542
I2201227
sS'froth'
p1543
I278469
sS'acrid'
p1544
I104638
sS'devil'
p1545
I12869511
sS'filth'
p1546
I2077997
sS'raise'
p1547
I21099943
sS'smote'
p1548
I276278
sS'stamp'
p1549
I9760468
sS'dryly'
p1550
I96792
sS'brick'
p1551
I8094369
sS'empty'
p1552
I26206017
sS'voila'
p1553
I506278
sS'deter'
p1554
I1887521
sS'fritz'
p1555
I2309089
sS'awake'
p1556
I3230337
sS'liver'
p1557
I12139363
sS'cinch'
p1558
I427247
sS'unify'
p1559
I631185
sS'shove'
p1560
I847364
sS'slyly'
p1561
I103507
sS'solid'
p1562
I37426444
sS'amble'
p1563
I141586
sS'batch'
p1564
I7835050
sS'while'
p1565
I226194991
sS'dense'
p1566
I5225392
sS'cagey'
p1567
I66504
sS'ought'
p1568
I7523238
sS'error'
p1569
I89396475
sS'wring'
p1570
I188579
sS'fleet'
p1571
I10364423
sS'coyly'
p1572
I52174
sS'robin'
p1573
I11423944
sS'lingo'
p1574
I1055245
sS'idler'
p1575
I358013
sS'pound'
p1576
I13620117
sS'petal'
p1577
I895903
sS'demon'
p1578
I4602331
sS'unfed'
p1579
I20266
sS'anode'
p1580
I768949
sS'chasm'
p1581
I517410
sS'ready'
p1582
I62667516
sS'quail'
p1583
I1278967
sS'chase'
p1584
I10971945
sS'funny'
p1585
I34281806
sS'decor'
p1586
I12098868
sS'shirt'
p1587
I40501964
sS'dingy'
p1588
I255349
sS'grant'
p1589
I47609624
sS'decoy'
p1590
I514956
sS'baste'
p1591
I95369
sS'shire'
p1592
I2665081
sS'viola'
p1593
I2458792
sS'grand'
p1594
I56599468
sS'ester'
p1595
I1581770
sS'itchy'
p1596
I1181967
sS'ingot'
p1597
I234052
sS'fatty'
p1598
I5363547
sS'snail'
p1599
I1580640
sS'bonus'
p1600
I27819488
sS'cigar'
p1601
I3993843
sS'alert'
p1602
I32472727
sS'lurch'
p1603
I204983
sS'flown'
p1604
I1749635
sS'rabid'
p1605
I612676
sS'birch'
p1606
I2936180
sS'knack'
p1607
I616898
sS'timid'
p1608
I657204
sS'stack'
p1609
I11090579
sS'focal'
p1610
I5844761
sS'lower'
p1611
I72606927
sS'swish'
p1612
I949054
sS'picky'
p1613
I711200
sS'rearm'
p1614
I45604
sS'older'
p1615
I44222089
sS'sumac'
p1616
I181045
sS'halve'
p1617
I240290
sS'cheek'
p1618
I2681029
sS'spent'
p1619
I29719451
sS'grind'
p1620
I2482307
sS'cheer'
p1621
I3648929
sS'savvy'
p1622
I3140230
sS'entry'
p1623
I80717798
sS'olden'
p1624
I318215
sS'spend'
p1625
I26713310
sS'chore'
p1626
I565322
sS'chord'
p1627
I3123447
sS'salvo'
p1628
I454555
sS'salve'
p1629
I423303
sS'aroma'
p1630
I2018777
sS'shape'
p1631
I25675227
sS'using'
p1632
I269448880
sS'spiky'
p1633
I181090
sS'botch'
p1634
I92410
sS'carat'
p1635
I3398374
sS'hovel'
p1636
I76694
sS'eager'
p1637
I4175668
sS'tamer'
p1638
I355602
sS'input'
p1639
I57191675
sS'niece'
p1640
I1151039
sS'march'
p1641
I158281269
sS'stein'
p1642
I3893544
sS'quest'
p1643
I14258533
sS'wiser'
p1644
I841127
sS'snore'
p1645
I294125
sS'moody'
p1646
I3776452
sS'knock'
p1647
I5196013
sS'pithy'
p1648
I194285
sS'talon'
p1649
I858061
sS'spine'
p1650
I5370074
sS'glove'
p1651
I4714578
sS'spiny'
p1652
I366114
sS'wrack'
p1653
I68820
sS'often'
p1654
I92551460
sS'mauve'
p1655
I589931
sS'lathe'
p1656
I1073261
sS'clown'
p1657
I3081501
sS'sight'
p1658
I13360499
sS'eclat'
p1659
I123738
sS'scald'
p1660
I101839
sS'scale'
p1661
I46307526
sS'gruel'
p1662
I82196
sS'mummy'
p1663
I1878933
sS'balmy'
p1664
I210906
sS'retro'
p1665
I8000179
sS'scalp'
p1666
I1356840
sS'scaly'
p1667
I272847
sS'jumpy'
p1668
I168187
sS'nasal'
p1669
I2536094
sS'quota'
p1670
I3245515
sS'jazzy'
p1671
I849457
sS'pried'
p1672
I82841
sS'tidal'
p1673
I2268649
sS'taboo'
p1674
I3079923
sS'crone'
p1675
I229759
sS'candy'
p1676
I13772033
sS'shine'
p1677
I5881862
sS'faith'
p1678
I35936559
sS'gnome'
p1679
I12609820
sS'goody'
p1680
I733518
sS'plaza'
p1681
I14274314
sS'hinge'
p1682
I1758893
sS'range'
p1683
I128314924
sS'ounce'
p1684
I3268355
sS'modal'
p1685
I1718570
sS'shiny'
p1686
I3192674
sS'block'
p1687
I49694725
sS'locus'
p1688
I3009222
sS'clack'
p1689
I246726
sS'gavel'
p1690
I352668
sS'bezel'
p1691
I1692595
sS'canal'
p1692
I8278196
sS'gouge'
p1693
I240551
sS'liege'
p1694
I598284
sS'parer'
p1695
I38034
sS'chide'
p1696
I66368
sS'chard'
p1697
I459373
sS'lithe'
p1698
I135670
sS'droll'
p1699
I196087
sS'filer'
p1700
I702264
sS'harem'
p1701
I435962
sS'filet'
p1702
I550472
sS'frost'
p1703
I5940685
sS'slump'
p1704
I878659
sS'cloth'
p1705
I9764137
sS'serif'
p1706
I2109334
sS'crank'
p1707
I2185208
sS'newer'
p1708
I7122879
sS'delta'
p1709
I28051872
sS'flaky'
p1710
I442666
sS'crane'
p1711
I4888961
sS'bossy'
p1712
I163576
sS'bevel'
p1713
I571985
sS'skull'
p1714
I4457991
sS'covey'
p1715
I720367
sS'elide'
p1716
I23795
sS'swami'
p1717
I900023
sS'jumbo'
p1718
I3237095
sS'fried'
p1719
I4364192
sS'torus'
p1720
I509986
sS'geese'
p1721
I1299115
sS'cleat'
p1722
I371970
sS'sepia'
p1723
I741438
sS'haunt'
p1724
I985188
sS'bicep'
p1725
I162754
sS'rally'
p1726
I9155530
sS'gecko'
p1727
I1230211
sS'hyena'
p1728
I268889
sS'rainy'
p1729
I2469088
sS'lemon'
p1730
I9066930
sS'peach'
p1731
I3938068
sS'crypt'
p1732
I1904607
sS'peace'
p1733
I47856201
sS'swath'
p1734
I438339
sS'cluck'
p1735
I134048
sS'forge'
p1736
I5226805
sS'scrub'
p1737
I2360299
sS'gross'
p1738
I16440590
sS'lucid'
p1739
I1105349
sS'scrum'
p1740
I425870
sS'druid'
p1741
I1160196
sS'chirp'
p1742
I240510
sS'cater'
p1743
I2092828
sS'mealy'
p1744
I116752
sS'vigil'
p1745
I1183443
sS'wafer'
p1746
I1554217
sS'orbit'
p1747
I5389062
sS'remit'
p1748
I1111713
sS'heath'
p1749
I6139151
sS'depth'
p1750
I31879926
sS'karma'
p1751
I6862407
sS'bribe'
p1752
I646492
sS'fresh'
p1753
I38781893
sS'hello'
p1754
I32960381
sS'rinse'
p1755
I1885846
sS'essay'
p1756
I11750312
sS'tubal'
p1757
I566730
sS'octet'
p1758
I2280607
sS'totem'
p1759
I955271
sS'alien'
p1760
I10490554
sS'windy'
p1761
I2162674
sS'amiss'
p1762
I271389
sS'query'
p1763
I31284313
sS'baron'
p1764
I3504549
sS'suave'
p1765
I336960
sS'stave'
p1766
I363443
sS'young'
p1767
I136341684
sS'mower'
p1768
I1579636
sS'shack'
p1769
I2739743
sS'blaze'
p1770
I2448412
sS'suite'
p1771
I44829675
sS'fatal'
p1772
I6779744
sS'abode'
p1773
I1246541
sS'dandy'
p1774
I1098188
sS'probe'
p1775
I9643801
sS'assay'
p1776
I3855224
sS'ladle'
p1777
I372653
sS'iliac'
p1778
I181298
sS'kitty'
p1779
I6414935
sS'spool'
p1780
I1499516
sS'spoon'
p1781
I4000406
sS'llama'
p1782
I1033922
sS'spook'
p1783
I318653
sS'spoof'
p1784
I907481
sS'sheik'
p1785
I596893
sS'molar'
p1786
I650262
sS'gipsy'
p1787
I387772
sS'magic'
p1788
I36676771
sS'tonal'
p1789
I707113
sS'stiff'
p1790
I3492842
sS'marry'
p1791
I4388137
sS'shock'
p1792
I14850388
sS'fewer'
p1793
I10792786
sS'dealt'
p1794
I6174968
sS'radio'
p1795
I113285624
sS'outdo'
p1796
I146433
sS'refer'
p1797
I27099706
sS'booty'
p1798
I14218854
sS'dopey'
p1799
I169040
sS'pleat'
p1800
I266830
sS'trawl'
p1801
I553588
sS'blitz'
p1802
I2476009
sS'mural'
p1803
I1367338
sS'privy'
p1804
I742055
sS'crook'
p1805
I1067661
sS'imply'
p1806
I4491299
sS'video'
p1807
I365410017
sS'booth'
p1808
I7723310
sS'plead'
p1809
I1125870
sS'click'
p1810
I536746424
sS'index'
p1811
I242826246
sS'twine'
p1812
I415457
sS'dowdy'
p1813
I161797
sS'gruff'
p1814
I237505
sS'piper'
p1815
I3346631
sS'valet'
p1816
I2052690
sS'caper'
p1817
I485193
sS'chose'
p1818
I9409845
sS'punch'
p1819
I6872844
sS'quell'
p1820
I292803
sS'gloat'
p1821
I113594
sS'batty'
p1822
I416010
sS'safer'
p1823
I5085040
sS'miser'
p1824
I222219
sS'great'
p1825
I301487430
sS'metro'
p1826
I18738665
sS'chant'
p1827
I1374428
sS'repel'
p1828
I439316
sS'derby'
p1829
I6319608
sS'climb'
p1830
I5697476
sS'vaunt'
p1831
I17134
sS'honor'
p1832
I16787246
sS'apple'
p1833
I50551171
sS'heart'
p1834
I90249265
sS'clout'
p1835
I639706
sS'hardy'
p1836
I4748572
sS'motor'
p1837
I40615655
sS'apply'
p1838
I76341478
sS'cloud'
p1839
I11337220
sS'imbue'
p1840
I105068
sS'snoop'
p1841
I2787168
sS'doubt'
p1842
I20311261
sS'humus'
p1843
I186734
sS'noisy'
p1844
I3722908
sS'hydro'
p1845
I3725464
sS'porch'
p1846
I3420626
sS'trait'
p1847
I1705417
sS'kiosk'
p1848
I1808146
sS'trail'
p1849
I23648838
sS'train'
p1850
I31816971
sS'pygmy'
p1851
I421975
sS'women'
p1852
I242520455
sS'annoy'
p1853
I1497815
sS'salad'
p1854
I8923706
sS'lapse'
p1855
I1459542
sS'donut'
p1856
I836168
sS'drill'
p1857
I8248787
sS'fetch'
p1858
I2897593
sS'proof'
p1859
I26305059
sS'wedge'
p1860
I3162851
sS'wharf'
p1861
I2226856
sS'reedy'
p1862
I316918
sS'dogma'
p1863
I1016614
sS'crick'
p1864
I362258
sS'atone'
p1865
I152901
sS'boney'
p1866
I409772
sS'flake'
p1867
I847014
sS'preen'
p1868
I73524
sS'skirt'
p1869
I9981485
sS'egret'
p1870
I394773
sS'briar'
p1871
I630788
sS'serum'
p1872
I5854942
sS'delay'
p1873
I21911190
sS'goner'
p1874
I80810
sS'panic'
p1875
I6396440
sS'stock'
p1876
I176295589
sS'await'
p1877
I1745587
sS'jiffy'
p1878
I475865
sS'abuse'
p1879
I36269685
sS'wrist'
p1880
I6143580
sS'bluff'
p1881
I3906671
sS'udder'
p1882
I175766
sS'drape'
p1883
I484861
sS'light'
p1884
I126699632
sS'catty'
p1885
I107679
sS'robot'
p1886
I12656312
sS'budge'
p1887
I418361
sS'linen'
p1888
I4960413
sS'chief'
p1889
I45699591
sS'allot'
p1890
I396325
sS'allow'
p1891
I67052567
sS'alloy'
p1892
I5468839
sS'shied'
p1893
I103457
sS'soggy'
p1894
I331525
sS'thigh'
p1895
I2171107
sS'tribe'
p1896
I7890695
sS'bugle'
p1897
I583867
sS'meter'
p1898
I22874915
sS'sperm'
p1899
I5944531
sS'covet'
p1900
I219812
sS'comma'
p1901
I2711522
sS'quake'
p1902
I4544481
sS'horny'
p1903
I12363955
sS'bunch'
p1904
I10355431
sS'brood'
p1905
I1042305
sS'outer'
p1906
I11245167
sS'inlet'
p1907
I3433125
sS'decay'
p1908
I4956622
sS'broom'
p1909
I1312361
sS'brook'
p1910
I6044943
sS'labor'
p1911
I37866418
sS'decal'
p1912
I2311933
sS'flank'
p1913
I910609
sS'marsh'
p1914
I5073104
sS'hobby'
p1915
I8237250
sS'pixel'
p1916
I8813200
sS'crash'
p1917
I15302627
sS'frond'
p1918
I86555
sS'flour'
p1919
I5162842
sS'spell'
p1920
I8506049
sS'flout'
p1921
I72396
sS'spelt'
p1922
I431427
sS'snake'
p1923
I7606395
sS'stout'
p1924
I1939514
sS'front'
p1925
I100886343
sS'handy'
p1926
I7936655
sS'crass'
p1927
I408565
sS'flail'
p1928
I155382
sS'easel'
p1929
I791426
sS'opine'
p1930
I103450
sS'feast'
p1931
I4166016
sS'merge'
p1932
I5961585
sS'slide'
p1933
I22339084
sS'truth'
p1934
I35345925
sS'paler'
p1935
I152772
sS'flair'
p1936
I1924190
sS'lilac'
p1937
I1738684
sS'doing'
p1938
I80821946
sS'tepid'
p1939
I220695
sS'globe'
p1940
I14554904
sS'banal'
p1941
I260129
sS'patch'
p1942
I39999745
sS'tenth'
p1943
I3317039
sS'sandy'
p1944
I9897487
sS'semen'
p1945
I1553302
sS'armor'
p1946
I6001844
sS'valve'
p1947
I11325360
sS'chaos'
p1948
I8690268
sS'venom'
p1949
I1883158
sS'cause'
p1950
I65904680
sS'slush'
p1951
I389608
sS'piggy'
p1952
I1053871
sS'frank'
p1953
I31392284
sS'godly'
p1954
I725475
sS'tempo'
p1955
I3372997
sS'graze'
p1956
I364990
sS'usual'
p1957
I17044981
sS'sneer'
p1958
I203583
sS'tulle'
p1959
I336799
sS'bleed'
p1960
I1989071
sS'shrew'
p1961
I382770
sS'scary'
p1962
I5571680
sS'spill'
p1963
I3890646
sS'route'
p1964
I31439231
sS'timer'
p1965
I7488669
sS'hence'
p1966
I14992334
sS'ionic'
p1967
I1808092
sS'scare'
p1968
I2972708
sS'scarf'
p1969
I3181107
sS'spilt'
p1970
I214786
sS'piney'
p1971
I394672
sS'undid'
p1972
I126166
sS'blown'
p1973
I4229918
sS'scene'
p1974
I29372413
sS'whoop'
p1975
I331753
sS'owner'
p1976
I58189056
sS'scent'
p1977
I3277212
sS'prank'
p1978
I825027
sS'vixen'
p1979
I885674
sS'sadly'
p1980
I3905175
sS'droop'
p1981
I156194
sS'their'
p1982
I782849411
sS'lumen'
p1983
I710305
sS'ankle'
p1984
I4146793
sS'drool'
p1985
I539170
sS'final'
p1986
I97649084
sS'cabin'
p1987
I8052267
sS'prone'
p1988
I3001079
sS'flume'
p1989
I173970
sS'gummy'
p1990
I281705
sS'shell'
p1991
I20599318
sS'shelf'
p1992
I11287023
sS'foamy'
p1993
I226531
sS'vouch'
p1994
I388963
sS'fuzzy'
p1995
I5241931
sS'elite'
p1996
I12673836
sS'haven'
p1997
I10569212
sS'mangy'
p1998
I55682
sS'steel'
p1999
I49452604
sS'spurn'
p2000
I79323
sS'slack'
p2001
I1954286
sS'elope'
p2002
I74984
sS'morph'
p2003
I759670
sS'steed'
p2004
I701658
sS'psalm'
p2005
I2220027
sS'lover'
p2006
I9234545
sS'agate'
p2007
I900451
sS'steep'
p2008
I3399504
sS'steer'
p2009
I2159937
sS'false'
p2010
I33476460
sS'liner'
p2011
I4486145
sS'mogul'
p2012
I753098
sS'elate'
p2013
I16161
sS'beefy'
p2014
I366863
sS'bitty'
p2015
I409188
sS'betel'
p2016
I126006
sS'rotor'
p2017
I2003039
sS'clove'
p2018
I698870
sS'angle'
p2019
I17016075
sS'scoop'
p2020
I5272369
sS'bough'
p2021
I520067
sS'bagel'
p2022
I792721
sS'jaunt'
p2023
I180434
sS'which'
p2024
I810514085
sS'singe'
p2025
I106880
sS'visor'
p2026
I1850201
sS'crept'
p2027
I588735
sS'tapir'
p2028
I86809
sS'clash'
p2029
I3531117
sS'hazel'
p2030
I2841268
sS'eight'
p2031
I32567724
sS'sedan'
p2032
I4769270
sS'delve'
p2033
I640909
sS'medal'
p2034
I7747036
sS'class'
p2035
I191087771
sS'clasp'
p2036
I1354393
sS'eject'
p2037
I935010
sS'upset'
p2038
I5544484
sS'ascot'
p2039
I888745
sS'debar'
p2040
I52384
sS'skunk'
p2041
I937406
sS'inane'
p2042
I319343
sS'stove'
p2043
I3914849
sS'crate'
p2044
I2336818
sS'poesy'
p2045
I62166
sS'briny'
p2046
I66915
sS'bring'
p2047
I57608074
sS'brine'
p2048
I816003
sS'rouge'
p2049
I6084449
sS'utter'
p2050
I2096533
sS'rough'
p2051
I11557184
sS'loamy'
p2052
I138014
sS'brink'
p2053
I1484879
sS'staff'
p2054
I151553180
sS'pause'
p2055
I4606318
sS'cache'
p2056
I17250923
sS'wreak'
p2057
I316442
sS'piano'
p2058
I19419956
sS'local'
p2059
I270742935
sS'meant'
p2060
I17832930
sS'skimp'
p2061
I107336
sS'lucky'
p2062
I14053901
sS'fizzy'
p2063
I194519
sS'joint'
p2064
I38827057
sS'cacti'
p2065
I478989
sS'buyer'
p2066
I42024703
sS'sassy'
p2067
I1657970
sS'dodgy'
p2068
I571643
sS'smash'
p2069
I3192001
sS'organ'
p2070
I9077449
sS'fixer'
p2071
I554896
sS'vying'
p2072
I348440
sS'topaz'
p2073
I2348935
sS'stuff'
p2074
I81444510
sS'juror'
p2075
I837876
sS'widow'
p2076
I3804620
sS'madam'
p2077
I2023575
sS'expel'
p2078
I467751
sS'frame'
p2079
I46079991
sS'shake'
p2080
I6839319
sS'artsy'
p2081
I333481
sS'braid'
p2082
I981945
sS'posse'
p2083
I1038358
sS'ralph'
p2084
I12190683
sS'below'
p2085
I145701629
sS'synod'
p2086
I1095269
sS'musky'
p2087
I177529
sS'favor'
p2088
I11867822
sS'state'
p2089
I453104133
sS'viper'
p2090
I2201559
sS'crude'
p2091
I5119129
sS'theta'
p2092
I5070673
sS'email'
p2093
I443949646
sS'speed'
p2094
I83135749
sS'agora'
p2095
I797585
sS'grout'
p2096
I628986
sS'ovoid'
p2097
I105072
sS'merry'
p2098
I6367037
sS'butte'
p2099
I2505600
sS'swift'
p2100
I5850031
sS'ennui'
p2101
I145576
sS'thumb'
p2102
I7284386
sS'sniff'
p2103
I1041321
sS'admin'
p2104
I37835381
sS'trove'
p2105
I702353
sS'equal'
p2106
I34832354
sS'admit'
p2107
I8780656
sS'grain'
p2108
I10244623
sS'grail'
p2109
I1122474
sS'denim'
p2110
I4737554
sS'hussy'
p2111
I85775
sS'laugh'
p2112
I9822471
sS'table'
p2113
I165341452
sS'mafia'
p2114
I2666020
sS'willy'
p2115
I2273954
sS'tread'
p2116
I1672572
sS'muddy'
p2117
I1860188
sS'polka'
p2118
I1242601
sS'tutor'
p2119
I4635949
sS'drank'
p2120
I1777243
sS'treat'
p2121
I19442315
sS'gulch'
p2122
I647573
sS'waste'
p2123
I41089558
sS'dirge'
p2124
I384505
sS'caddy'
p2125
I1094377
sS'saner'
p2126
I84491
sS'tense'
p2127
I2320926
sS'homer'
p2128
I4281428
sS'novel'
p2129
I21821189
sS'vapid'
p2130
I110502
sS'dodge'
p2131
I14768509
sS'plain'
p2132
I23747230
sS'align'
p2133
I5478643
sS'ripen'
p2134
I191197
sS'value'
p2135
I182061247
sS'chalk'
p2136
I2498505
sS'riper'
p2137
I74056
sS'plait'
p2138
I103227
sS'ultra'
p2139
I21795075
sS'ombre'
p2140
I243069
sS'groin'
p2141
I784476
sS'layer'
p2142
I26912270
sS'motif'
p2143
I2961524
sS'squib'
p2144
I112968
sS'blimp'
p2145
I263458
sS'tenor'
p2146
I2361385
sS'prose'
p2147
I3085898
sS'odder'
p2148
I60826
sS'whirl'
p2149
I622629
sS'began'
p2150
I38269468
sS'cross'
p2151
I74230978
sS'unite'
p2152
I2888724
sS'begat'
p2153
I191296
sS'unity'
p2154
I8657709
sS'belch'
p2155
I115135
sS'party'
p2156
I144707500
sS'infer'
p2157
I1104540
sS'slave'
p2158
I10692715
sS'joist'
p2159
I194739
sS'cubic'
p2160
I5774261
sS'drink'
p2161
I29254937
sS'sauna'
p2162
I4202256
sS'beast'
p2163
I14787561
sS'pedal'
p2164
I3763705
sS'whale'
p2165
I5928569
sS'lobby'
p2166
I6887477
sS'audit'
p2167
I20786243
sS'lupus'
p2168
I1538621
sS'polyp'
p2169
I197981
sS'drone'
p2170
I725818
sS'twirl'
p2171
I234072
sS'audio'
p2172
I127014703
sS'fetal'
p2173
I3127968
sS'cameo'
p2174
I1517437
sS'cried'
p2175
I4352198
sS'flesh'
p2176
I6768724
sS'crier'
p2177
I374599
sS'widen'
p2178
I1178278
sS'skill'
p2179
I15835076
sS'femme'
p2180
I2521124
sS'smite'
p2181
I270393
sS'rapid'
p2182
I19070672
sS'field'
p2183
I135289140
sS'drunk'
p2184
I10519219
sS'smith'
p2185
I63357901
sS'bench'
p2186
I8992211
sS'tawny'
p2187
I602308
sS'crack'
p2188
I16633701
sS'usage'
p2189
I25440406
sS'smart'
p2190
I36636558
sS'wimpy'
p2191
I258895
sS'match'
p2192
I53532481
sS'raven'
p2193
I4630541
sS'sonic'
p2194
I7298920
sS'ample'
p2195
I3187842
sS'testy'
p2196
I167487
sS'taunt'
p2197
I295148
sS'livid'
p2198
I270785
sS'dryer'
p2199
I5592001
sS'cedar'
p2200
I9484993
sS'wooer'
p2201
I1
sS'press'
p2202
I179652730
sS'amply'
p2203
I321480
sS'trash'
p2204
I7092806
sS'crisp'
p2205
I3880385
sS'feral'
p2206
I897865
sS'onion'
p2207
I6384730
sS'bulge'
p2208
I881613
sS'loser'
p2209
I2529180
sS'ozone'
p2210
I5865280
sS'sissy'
p2211
I1410911
sS'epoxy'
p2212
I1908076
sS'plunk'
p2213
I106835
sS'chick'
p2214
I7771502
sS'lager'
p2215
I1050146
sS'awash'
p2216
I274221
sS'glare'
p2217
I1567097
sS'foray'
p2218
I499808
sS'brash'
p2219
I461753
sS'lapel'
p2220
I1119712
sS'cider'
p2221
I1743446
sS'thief'
p2222
I2970770
sS'alive'
p2223
I16064787
sS'melee'
p2224
I1034523
sS'flush'
p2225
I5625285
sS'leery'
p2226
I168700
sS'glyph'
p2227
I632257
sS'shrug'
p2228
I720506
sS'shrub'
p2229
I1458217
sS'billy'
p2230
I13515249
sS'broad'
p2231
I21370126
sS'avoid'
p2232
I36508203
sS'miner'
p2233
I2264812
sS'shone'
p2234
I704369
sS'floss'
p2235
I1013783
sS'outgo'
p2236
I34007
sS'noose'
p2237
I378201
sS'fanny'
p2238
I1516099
sS'trout'
p2239
I5369048
sS'pasty'
p2240
I231237
sS'recut'
p2241
I146984
sS'noise'
p2242
I25171520
sS'lipid'
p2243
I2662396
sS'pulpy'
p2244
I41088
sS'pasta'
p2245
I5855460
sS'fetid'
p2246
I75712
sS'paste'
p2247
I8913055
sS'stage'
p2248
I52518330
sS'about'
p2249
I1226734006
sS'world'
p2250
I431934249
sS'glade'
p2251
I1168016
sS'surge'
p2252
I5436623
sS'rodeo'
p2253
I3587192
sS'swear'
p2254
I3082372
sS'sweat'
p2255
I4551615
sS'perky'
p2256
I1360009
sS'seedy'
p2257
I284954
sS'cadet'
p2258
I1717624
sS'cocoa'
p2259
I3557169
sS'guard'
p2260
I21137924
sS'champ'
p2261
I2867858
sS'brush'
p2262
I10018684
sS'afoot'
p2263
I364417
sS'maize'
p2264
I2222076
sS'ridge'
p2265
I15993437
sS'inner'
p2266
I17552078
sS'pouty'
p2267
I69818
sS'chunk'
p2268
I2371231
sS'ivory'
p2269
I7146685
sS'north'
p2270
I217809513
sS'shank'
p2271
I1311484
sS'rajah'
p2272
I157089
sS'brand'
p2273
I82807581
sS'amity'
p2274
I540428
sS'pixie'
p2275
I1037554
sS'wight'
p2276
I2190271
sS'wince'
p2277
I717079
sS'grate'
p2278
I672155
sS'winch'
p2279
I1016374
sS'deuce'
p2280
I970434
sS'count'
p2281
I40345803
sS'leper'
p2282
I200592
sS'glory'
p2283
I13158826
sS'vigor'
p2284
I977544
sS'rumba'
p2285
I404980
sS'pansy'
p2286
I420775
sS'cruel'
p2287
I4180956
sS'limit'
p2288
I38290292
sS'cello'
p2289
I2358848
sS'piece'
p2290
I44298807
sS'penny'
p2291
I7162062
sS'twist'
p2292
I7240854
sS'abbot'
p2293
I992552
sS'penne'
p2294
I400010
sS'folio'
p2295
I1842202
sS'glint'
p2296
I272373
sS'mimic'
p2297
I1187154
sS'patsy'
p2298
I1064602
sS'other'
p2299
I978481319
sS'ledge'
p2300
I1157598
sS'finch'
p2301
I1816047
sS'lance'
p2302
I5509634
sS'troll'
p2303
I2079165
sS'butch'
p2304
I1213820
sS'mulch'
p2305
I833160
sS'cliff'
p2306
I5898886
sS'ghost'
p2307
I14490042
sS'shunt'
p2308
I604152
sS'baker'
p2309
I14862470
sS'jewel'
p2310
I5603871
sS'racer'
p2311
I3625077
sS'wryly'
p2312
I93928
sS'pupil'
p2313
I4167137
sS'rural'
p2314
I30998929
sS'abhor'
p2315
I169167
s.